target datalayout = "e-m:e-p270:32:32-p271:32:32-p272:64:64-i64:64-i128:128-f80:128-n8:16:32:64-S128"
target triple = "x86_64-pc-linux-gnu"

%class.mpff_manager = type <{ i32, i32, %class.svector, i32, i8, [3 x i8], %class.id_gen, [4 x %class.svector], %class.svector, %class.mpff, [8 x i8] }>
%class.id_gen = type { i32, %class.svector }
%class.svector = type { %class.vector }
%class.vector = type { ptr }
%class.mpff = type { i32, i32 }

; Function Attrs: mustprogress nounwind uwtable
define linkonce_odr hidden noundef ptr @_ZNK6vectorIjLb0EjE4dataEv(ptr noundef nonnull align 8 dereferenceable(8) %0) #5 comdat align 2 {
  %2 = alloca ptr, align 8
  store ptr %0, ptr %2, align 8, !tbaa !32
  %3 = load ptr, ptr %2, align 8
  %4 = getelementptr inbounds nuw %class.vector, ptr %3, i32 0, i32 0
  %5 = load ptr, ptr %4, align 8, !tbaa !35
  ret ptr %5
}

; Function Attrs: mustprogress uwtable
define linkonce_odr hidden noundef ptr @_ZNK12mpff_manager3sigERK4mpff(ptr noundef nonnull align 8 dereferenceable(89) %0, ptr noundef nonnull align 4 dereferenceable(8) %1) #4 comdat align 2 {
  %3 = alloca ptr, align 8
  %4 = alloca ptr, align 8
  store ptr %0, ptr %3, align 8, !tbaa !3
  store ptr %1, ptr %4, align 8, !tbaa !29
  %5 = load ptr, ptr %3, align 8
  %6 = getelementptr inbounds nuw %class.mpff_manager, ptr %5, i32 0, i32 2
  %7 = call noundef ptr @_ZNK6vectorIjLb0EjE4dataEv(ptr noundef nonnull align 8 dereferenceable(8) %6)
  %8 = load ptr, ptr %4, align 8, !tbaa !29
  %9 = load i32, ptr %8, align 4
  %10 = lshr i32 %9, 1
  %11 = getelementptr inbounds nuw %class.mpff_manager, ptr %5, i32 0, i32 0
  %12 = load i32, ptr %11, align 8, !tbaa !10
  %13 = mul i32 %10, %12
  %14 = zext i32 %13 to i64
  %15 = getelementptr inbounds nuw i32, ptr %7, i64 %14
  ret ptr %15
}

; Function Attrs: mustprogress uwtable
define hidden noundef zeroext i1 @_ZNK12mpff_manager10is_abs_oneERK4mpff(ptr noundef nonnull align 8 dereferenceable(89) %0, ptr noundef nonnull align 4 dereferenceable(8) %1) #4 align 2 {
  %3 = alloca i1, align 1
  %4 = alloca ptr, align 8
  %5 = alloca ptr, align 8
  %6 = alloca ptr, align 8
  %7 = alloca i32, align 4
  %8 = alloca i32, align 4
  store ptr %0, ptr %4, align 8, !tbaa !3
  store ptr %1, ptr %5, align 8, !tbaa !29
  %9 = load ptr, ptr %4, align 8
  %10 = load ptr, ptr %5, align 8, !tbaa !29
  %11 = getelementptr inbounds nuw %class.mpff, ptr %10, i32 0, i32 1
  %12 = load i32, ptr %11, align 4, !tbaa !31
  %13 = getelementptr inbounds nuw %class.mpff_manager, ptr %9, i32 0, i32 1
  %14 = load i32, ptr %13, align 4, !tbaa !19
  %15 = sub nsw i32 1, %14
  %16 = icmp ne i32 %12, %15
  br i1 %16, label %17, label %18

17:                                               ; preds = %2
  store i1 false, ptr %3, align 1
  br label %54

18:                                               ; preds = %2
  call void @llvm.lifetime.start.p0(i64 8, ptr %6) #3
  %19 = load ptr, ptr %5, align 8, !tbaa !29
  %20 = call noundef ptr @_ZNK12mpff_manager3sigERK4mpff(ptr noundef nonnull align 8 dereferenceable(89) %9, ptr noundef nonnull align 4 dereferenceable(8) %19)
  store ptr %20, ptr %6, align 8, !tbaa !36
  %21 = load ptr, ptr %6, align 8, !tbaa !36
  %22 = getelementptr inbounds nuw %class.mpff_manager, ptr %9, i32 0, i32 0
  %23 = load i32, ptr %22, align 8, !tbaa !10
  %24 = sub i32 %23, 1
  %25 = zext i32 %24 to i64
  %26 = getelementptr inbounds nuw i32, ptr %21, i64 %25
  %27 = load i32, ptr %26, align 4, !tbaa !8
  %28 = icmp ne i32 %27, -2147483648
  br i1 %28, label %29, label %30

29:                                               ; preds = %18
  store i1 false, ptr %3, align 1
  store i32 1, ptr %7, align 4
  br label %53

30:                                               ; preds = %18
  call void @llvm.lifetime.start.p0(i64 4, ptr %8) #3
  store i32 0, ptr %8, align 4, !tbaa !8
  br label %31

31:                                               ; preds = %47, %30
  %32 = load i32, ptr %8, align 4, !tbaa !8
  %33 = getelementptr inbounds nuw %class.mpff_manager, ptr %9, i32 0, i32 0
  %34 = load i32, ptr %33, align 8, !tbaa !10
  %35 = sub i32 %34, 1
  %36 = icmp ult i32 %32, %35
  br i1 %36, label %38, label %37

37:                                               ; preds = %31
  store i32 2, ptr %7, align 4
  br label %50

38:                                               ; preds = %31
  %39 = load ptr, ptr %6, align 8, !tbaa !36
  %40 = load i32, ptr %8, align 4, !tbaa !8
  %41 = zext i32 %40 to i64
  %42 = getelementptr inbounds nuw i32, ptr %39, i64 %41
  %43 = load i32, ptr %42, align 4, !tbaa !8
  %44 = icmp ne i32 %43, 0
  br i1 %44, label %45, label %46

45:                                               ; preds = %38
  store i1 false, ptr %3, align 1
  store i32 1, ptr %7, align 4
  br label %50

46:                                               ; preds = %38
  br label %47

47:                                               ; preds = %46
  %48 = load i32, ptr %8, align 4, !tbaa !8
  %49 = add i32 %48, 1
  store i32 %49, ptr %8, align 4, !tbaa !8
  br label %31, !llvm.loop !47

50:                                               ; preds = %45, %37
  call void @llvm.lifetime.end.p0(i64 4, ptr %8) #3
  %51 = load i32, ptr %7, align 4
  switch i32 %51, label %53 [
    i32 2, label %52
  ]

52:                                               ; preds = %50
  store i1 true, ptr %3, align 1
  store i32 1, ptr %7, align 4
  br label %53

53:                                               ; preds = %52, %50, %29
  call void @llvm.lifetime.end.p0(i64 8, ptr %6) #3
  br label %54

54:                                               ; preds = %53, %17
  %55 = load i1, ptr %3, align 1
  ret i1 %55
}