; Function Attrs: mustprogress nofree norecurse nosync nounwind willreturn memory(read, inaccessiblemem: none) uwtable
define hidden noundef zeroext i1 @_ZNK12mpff_manager10is_abs_oneERK4mpff(ptr noundef nonnull readonly align 8 captures(none) dereferenceable(89) %0, ptr noundef nonnull readonly align 4 captures(none) dereferenceable(8) %1) local_unnamed_addr #10 align 2 {
  %3 = getelementptr inbounds nuw i8, ptr %1, i64 4
  %4 = load i32, ptr %3, align 4, !tbaa !35
  %5 = getelementptr inbounds nuw i8, ptr %0, i64 4
  %6 = load i32, ptr %5, align 4, !tbaa !18
  %7 = sub nsw i32 1, %6
  %.not = icmp eq i32 %4, %7
  br i1 %.not, label %8, label %.loopexit

8:                                                ; preds = %2
  %9 = getelementptr inbounds nuw i8, ptr %0, i64 8
  %10 = load ptr, ptr %9, align 8, !tbaa !3
  %11 = load i32, ptr %1, align 4
  %12 = lshr i32 %11, 1
  %13 = load i32, ptr %0, align 8, !tbaa !13
  %14 = mul i32 %12, %13
  %15 = zext i32 %14 to i64
  %16 = getelementptr inbounds nuw i32, ptr %10, i64 %15
  %17 = add i32 %13, -1
  %18 = zext i32 %17 to i64
  %19 = getelementptr inbounds nuw i32, ptr %16, i64 %18
  %20 = load i32, ptr %19, align 4, !tbaa !21
  %.not11 = icmp eq i32 %20, -2147483648
  br i1 %.not11, label %.preheader, label %.loopexit

.preheader:                                       ; preds = %8
  %.not1314 = icmp eq i32 %17, 0
  br i1 %.not1314, label %.loopexit, label %.lr.ph

.lr.ph:                                           ; preds = %.preheader, %.lr.ph
  %indvars.iv = phi i64 [ %indvars.iv.next, %.lr.ph ], [ 0, %.preheader ]
  %21 = getelementptr inbounds nuw i32, ptr %16, i64 %indvars.iv
  %22 = load i32, ptr %21, align 4, !tbaa !21
  %.not12 = icmp eq i32 %22, 0
  %indvars.iv.next = add nuw nsw i64 %indvars.iv, 1
  %exitcond.not = icmp ne i64 %indvars.iv.next, %18
  %or.cond.not = select i1 %.not12, i1 %exitcond.not, i1 false
  br i1 %or.cond.not, label %.lr.ph, label %.loopexit, !llvm.loop !43

.loopexit:                                        ; preds = %.lr.ph, %.preheader, %8, %2
  %.010 = phi i1 [ false, %2 ], [ false, %8 ], [ true, %.preheader ], [ %.not12, %.lr.ph ]
  ret i1 %.010
}